LIBRARY   sfSettings
EXPORTS

??0CObjectOStream@@QAE@PBD@Z
??1CObjectIStream@@QAE@XZ
??0CObjectIStream@@QAE@PBD@Z
?ReadMarkedString@CObjectIStream@@QAEXXZ
?Rewind@CObjectIStream@@QAEXXZ
?Shw_bAtWhiteSpace@@YA_NPBD@Z
?Shw_pszOtherWhiteSpace@@3PBDB
?SkipBOM@CObjectIStream@@QAEXXZ
?SkipToEndMarker@CObjectIStream@@QAEXPBD@Z
?WriteBeginMarker@CObjectOStream@@QAEXPBD0@Z
?WriteBool@CObjectOStream@@QAEXPBDH@Z
?WriteCOLORREF@CObjectOStream@@QAEXPBDK@Z
?WriteDouble@CObjectOStream@@QAEXPBDN@Z
?WriteEndMarker@CObjectOStream@@QAEXPBD@Z
?WriteInteger@CObjectOStream@@QAEXPBDH0@Z
?WriteNewline@CObjectOStream@@QAEXXZ
?WriteString@CObjectOStream@@QAEXPBD0@Z
?WriteUInt@CObjectOStream@@QAEXPBDI0@Z
?WriteWindowPlacement@CObjectOStream@@QAEXPBDAAUtagWINDOWPLACEMENT@@@Z
?bAtBackslash@CObjectIStream@@QAEHXZ
?bAtBeginMarker@CObjectIStream@@QAEHPBD0@Z
?bAtBeginOrEndMarker@CObjectIStream@@QAEHXZ
?bAtEnd@CObjectIStream@@QAEHXZ
?bEnd@CObjectIStream@@QAEHPBD@Z
?bFileExists@@YA_NPBD@Z
?bReadBool@CObjectIStream@@QAEHPBDAAH@Z
?bReadCOLORREF@CObjectIStream@@QAEHPBDAAK@Z
?bReadDouble@CObjectIStream@@QAEHPBDAAN@Z
?bReadInteger@CObjectIStream@@QAEHPBDAAH@Z
?bReadMarker@CObjectIStream@@AAEHDPBD@Z
?bReadUInt@CObjectIStream@@QAEHPBDAAI@Z
?bReadWindowPlacement@CObjectIStream@@QAEHPBDAAUtagWINDOWPLACEMENT@@@Z
?getIos@CObjectIStream@@QAEAAV?$basic_ifstream@DU?$char_traits@D@std@@@std@@XZ
?PeekMarkedString@CObjectIStream@@QAEXPAPBDPADIH@Z
?bReadBeginMarker@CObjectIStream@@QAEHPBD@Z
?bReadString@CObjectIStream@@QAEHPBDPADI@Z
?bReadEndMarker@CObjectIStream@@QAEHPBD@Z
??1CObjectOStream@@QAE@XZ
?bReadBeginMarker@CObjectIStream@@QAEHPBDPADI@Z
?getIos@CObjectOStream@@QAEAAV?$basic_ofstream@DU?$char_traits@D@std@@@std@@XZ


